Certificate Request:
    Data:
        Version: 1 (0x0)
        Subject: CN = dbhost.yourdomain.com
        Subject Public Key Info:
            Public Key Algorithm: rsaEncryption
                Public-Key: (2048 bit)
                Modulus:
                    00:e0:c2:18:bf:eb:cb:df:45:45:fd:0e:22:98:f0:
                    f1:5d:44:df:a9:c5:a1:39:b3:81:22:2a:fc:c2:fe:
                    95:a4:9b:19:9c:d0:bd:c8:45:cd:f9:90:b2:7a:df:
                    45:e7:6e:b2:3a:60:ec:a2:5c:a9:96:ee:37:93:24:
                    3f:3e:14:a0:48:30:6b:e1:8b:3c:82:71:a8:50:fc:
                    2e:1c:c3:5d:cf:d0:44:5d:03:9b:81:78:38:f1:5c:
                    0e:a1:9e:ea:7e:70:f9:0d:83:12:b2:1f:e1:c0:e2:
                    f7:01:e6:c6:ef:51:dc:4d:6a:16:89:85:ff:80:f8:
                    15:1d:9f:42:2b:d5:ec:c5:d0:e2:f7:c7:b9:06:7b:
                    76:d2:86:af:74:b9:f1:10:2f:10:b0:17:e1:3f:33:
                    3d:1a:fd:13:de:de:11:36:db:b6:8d:91:76:8b:62:
                    27:d2:76:1b:fd:7a:3d:2e:93:f9:bd:04:f4:c0:3a:
                    a3:75:86:d7:a9:b0:00:25:62:9e:38:08:f5:0e:59:
                    10:f9:3a:fd:7a:70:86:0f:f6:58:66:79:fd:72:28:
                    24:b9:34:a9:ab:f4:a8:b4:63:85:dd:e9:9a:0d:65:
                    60:c0:30:d7:d7:d4:c4:88:d3:71:f2:33:b1:18:e2:
                    de:5c:93:49:ac:c5:6f:a5:3d:d3:4c:4a:4d:0f:18:
                    2a:13
                Exponent: 65537 (0x10001)
        Attributes:
            (none)
            Requested Extensions:
    Signature Algorithm: sha256WithRSAEncryption
    Signature Value:
        91:f6:c1:0f:47:12:28:43:a0:b7:75:ae:34:80:61:81:1e:67:
        b9:e4:e1:41:7b:85:b6:64:28:1e:43:77:bb:11:d0:7b:a9:ac:
        07:dd:b4:cf:8d:59:58:e3:a0:e7:58:b6:67:17:9d:96:29:64:
        03:f0:71:ef:ce:e1:46:0c:05:89:a5:de:9a:58:0f:16:9f:d7:
        5d:1f:2c:8b:49:d3:1e:ea:c3:9d:7b:44:e2:30:4e:95:3b:3a:
        8b:de:2b:e2:cf:61:0d:0f:c4:01:60:93:c9:3d:60:8c:8d:44:
        40:46:41:84:96:fa:5a:17:0d:60:02:4b:a1:95:dd:b9:a3:67:
        df:24:9b:77:3f:50:a7:85:94:d2:7d:30:27:e8:20:37:19:6e:
        04:9a:96:99:eb:95:fc:e8:a7:d0:ce:6a:61:fd:e4:f0:c8:4d:
        e2:4f:47:4c:0d:80:2e:46:95:77:06:bf:bd:d0:4a:64:86:33:
        68:50:a2:b2:65:95:76:43:3e:fb:3b:f4:13:44:6e:e2:25:57:
        27:75:3e:1e:9d:5e:ee:55:9a:3c:24:65:57:7d:f7:42:bb:95:
        1f:5c:62:4c:b6:fb:1c:b6:50:7c:6d:f1:6d:b0:ec:62:e4:dc:
        c1:8d:cf:bc:28:39:64:b3:8b:85:99:41:8a:45:ca:6a:b2:7a:
        2a:a3:d8:98
-----BEGIN CERTIFICATE REQUEST-----
MIICZTCCAU0CAQAwIDEeMBwGA1UEAwwVZGJob3N0LnlvdXJkb21haW4uY29tMIIB
IjANBgkqhkiG9w0BAQEFAAOCAQ8AMIIBCgKCAQEA4MIYv+vL30VF/Q4imPDxXUTf
qcWhObOBIir8wv6VpJsZnNC9yEXN+ZCyet9F526yOmDsolyplu43kyQ/PhSgSDBr
4Ys8gnGoUPwuHMNdz9BEXQObgXg48VwOoZ7qfnD5DYMSsh/hwOL3AebG71HcTWoW
iYX/gPgVHZ9CK9XsxdDi98e5Bnt20oavdLnxEC8QsBfhPzM9Gv0T3t4RNtu2jZF2
i2In0nYb/Xo9LpP5vQT0wDqjdYbXqbAAJWKeOAj1DlkQ+Tr9enCGD/ZYZnn9cigk
uTSpq/SotGOF3emaDWVgwDDX19TEiNNx8jOxGOLeXJNJrMVvpT3TTEpNDxgqEwID
AQABoAAwDQYJKoZIhvcNAQELBQADggEBAJH2wQ9HEihDoLd1rjSAYYEeZ7nk4UF7
hbZkKB5Dd7sR0HuprAfdtM+NWVjjoOdYtmcXnZYpZAPwce/O4UYMBYml3ppYDxaf
110fLItJ0x7qw517ROIwTpU7OoveK+LPYQ0PxAFgk8k9YIyNREBGQYSW+loXDWAC
S6GV3bmjZ98km3c/UKeFlNJ9MCfoIDcZbgSalpnrlfzop9DOamH95PDITeJPR0wN
gC5GlXcGv73QSmSGM2hQorJllXZDPvs79BNEbuIlVyd1Ph6dXu5VmjwkZVd990K7
lR9cYky2+xy2UHxt8W2w7GLk3MGNz7woOWSzi4WZQYpFymqyeiqj2Jg=
-----END CERTIFICATE REQUEST-----
